; Function Attrs: mustprogress uwtable
define dso_local void @_ZN7AstNode10deleteTreeEv(ptr noundef nonnull align 8 dereferenceable(152) %0) local_unnamed_addr #4 align 2 {
  %2 = getelementptr inbounds i8, ptr %0, i64 16
  %3 = load ptr, ptr %2, align 8
  %.not = icmp eq ptr %3, null
  br i1 %.not, label %8, label %4

4:                                                ; preds = %1
  %5 = tail call noundef nonnull align 8 dereferenceable(112) ptr @_ZN7V3Error19v3errorPrepFileLineB5cxx11E11V3ErrorCodePKcib(i8 4, ptr noundef nonnull @.str.557, i32 noundef 900, i1 noundef zeroext false)
  %6 = tail call noundef nonnull align 8 dereferenceable(112) ptr @_ZN7V3Error10v3errorStrB5cxx11Ev()
  %7 = tail call noundef nonnull align 8 dereferenceable(8) ptr @_ZStlsISt11char_traitsIcEERSt13basic_ostreamIcT_ES5_PKc(ptr noundef nonnull align 8 dereferenceable(8) %6, ptr noundef nonnull @.str.635)
  tail call void @_ZNK7AstNode15v3errorEndFatalERNSt7__cxx1119basic_ostringstreamIcSt11char_traitsIcESaIcEEE(ptr noundef nonnull align 8 dereferenceable(152) %0, ptr noundef nonnull align 8 dereferenceable(112) %7) #25
  unreachable

8:                                                ; preds = %1
  %9 = load i64, ptr @_ZN7AstNode12s_editCntGblE, align 8
  %10 = add i64 %9, 1
  store i64 %10, ptr @_ZN7AstNode12s_editCntGblE, align 8
  tail call void @_ZN7AstNode14deleteTreeIterEv(ptr noundef nonnull align 8 dereferenceable(152) %0)
  ret void
}